target datalayout = "e-m:e-p270:32:32-p271:32:32-p272:64:64-i64:64-i128:128-f80:128-n8:16:32:64-S128"
target triple = "x86_64-pc-linux-gnu"

%class.sls_engine = type { ptr, %"class.bv::sls_stats", %class.mpz_manager, %class.powers, %class.mpz, %class.mpz, %class.mpz, %class.bv_util, %class.sls_tracker, %class.sls_evaluator, %class.ptr_vector.25, i32, i32, i32, i32, i32, i32, i32, i32, i32, i32, i32, i32, i32, i32 }
%"class.bv::sls_stats" = type { i32, i32, i32, i32, i32, i32, i32, i32, %class.stopwatch }
%class.stopwatch = type <{ %"class.std::chrono::time_point", %"class.std::chrono::duration", i8, [7 x i8] }>
%"class.std::chrono::time_point" = type { %"class.std::chrono::duration" }
%"class.std::chrono::duration" = type { i64 }
%class.mpz_manager = type { %class.small_object_allocator, %"class.std::recursive_mutex", [4 x i8], i32, %class.mpz, %class.mpz }
%class.small_object_allocator = type { [32 x ptr], [32 x ptr], i64 }
%"class.std::recursive_mutex" = type { %"class.std::__recursive_mutex_base" }
%"class.std::__recursive_mutex_base" = type { %union.pthread_mutex_t }
%union.pthread_mutex_t = type { %struct.__pthread_mutex_s }
%struct.__pthread_mutex_s = type { i32, i32, i32, i32, i32, i16, i16, %struct.__pthread_internal_list }
%struct.__pthread_internal_list = type { ptr, ptr }
%class.powers = type { %class.u_map, ptr }
%class.u_map = type { %class.map }
%class.map = type { %class.table2map }
%class.table2map = type { %class.core_hashtable }
%class.core_hashtable = type <{ ptr, i32, i32, i32, [4 x i8] }>
%class.mpz = type { i32, i8, ptr }
%class.bv_util = type { %class.bv_recognizers, ptr, ptr }
%class.bv_recognizers = type { i32 }
%class.sls_tracker = type { ptr, ptr, ptr, ptr, %class.random_gen, i32, i32, %class.mpz, %class.mpz, %class.mpz, %class.obj_hashtable, %class.obj_map, %class.obj_map.4, %class.obj_map.9, %class.ptr_vector, %class.ptr_vector, %class.obj_map.14, i32, i32, i32, double, i32, double, double, i32, double, i32, [4 x i8], %class.obj_map.19, ptr, i32, [4 x i8], %class.obj_map.19, double, %class.obj_hashtable }
%class.random_gen = type { i32 }
%class.obj_map = type { %class.core_hashtable.2 }
%class.core_hashtable.2 = type <{ ptr, i32, i32, i32, [4 x i8] }>
%class.obj_map.4 = type { %class.core_hashtable.5 }
%class.core_hashtable.5 = type <{ ptr, i32, i32, i32, [4 x i8] }>
%class.obj_map.9 = type { %class.core_hashtable.10 }
%class.core_hashtable.10 = type <{ ptr, i32, i32, i32, [4 x i8] }>
%class.ptr_vector = type { %class.vector }
%class.vector = type { ptr }
%class.obj_map.14 = type { %class.core_hashtable.15 }
%class.core_hashtable.15 = type <{ ptr, i32, i32, i32, [4 x i8] }>
%class.obj_map.19 = type { %class.core_hashtable.20 }
%class.core_hashtable.20 = type <{ ptr, i32, i32, i32, [4 x i8] }>
%class.obj_hashtable = type { %class.core_hashtable.base.1, [4 x i8] }
%class.core_hashtable.base.1 = type <{ ptr, i32, i32, i32 }>
%class.sls_evaluator = type { ptr, ptr, i32, i32, ptr, ptr, %class.mpz, %class.mpz, %class.mpz, ptr, %class.ref_buffer, %class.vector.24, %class.vector.24 }
%class.ref_buffer = type { %class.ref_buffer_core }
%class.ref_buffer_core = type { %class.ref_manager_wrapper, %class.ptr_buffer }
%class.ref_manager_wrapper = type { ptr }
%class.ptr_buffer = type { %class.buffer }
%class.buffer = type { ptr, i32, i32, [128 x i8] }
%class.vector.24 = type { ptr }
%class.ptr_vector.25 = type { %class.vector.26 }
%class.vector.26 = type { ptr }

; Function Attrs: inlinehint mustprogress nounwind uwtable
define linkonce_odr hidden noundef zeroext i1 @_ZNK3mpz8is_smallEv(ptr noundef nonnull align 8 dereferenceable(16) %0) #8 comdat align 2 {
  %2 = alloca ptr, align 8
  store ptr %0, ptr %2, align 8, !tbaa !137
  %3 = load ptr, ptr %2, align 8
  %4 = getelementptr inbounds nuw %class.mpz, ptr %3, i32 0, i32 1
  %5 = load i8, ptr %4, align 4
  %6 = and i8 %5, 1
  %7 = zext i8 %6 to i32
  %8 = icmp eq i32 %7, 0
  ret i1 %8
}

; Function Attrs: mustprogress nounwind uwtable
define linkonce_odr hidden void @_ZN3mpz3setEi(ptr noundef nonnull align 8 dereferenceable(16) %0, i32 noundef %1) #5 comdat align 2 {
  %3 = alloca ptr, align 8
  %4 = alloca i32, align 4
  store ptr %0, ptr %3, align 8, !tbaa !137
  store i32 %1, ptr %4, align 4, !tbaa !33
  %5 = load ptr, ptr %3, align 8
  %6 = load i32, ptr %4, align 4, !tbaa !33
  %7 = getelementptr inbounds nuw %class.mpz, ptr %5, i32 0, i32 0
  store i32 %6, ptr %7, align 8, !tbaa !175
  %8 = getelementptr inbounds nuw %class.mpz, ptr %5, i32 0, i32 1
  %9 = load i8, ptr %8, align 4
  %10 = and i8 %9, -2
  %11 = or i8 %10, 0
  store i8 %11, ptr %8, align 4
  ret void
}

; Function Attrs: inlinehint mustprogress nounwind uwtable
define linkonce_odr hidden noundef i32 @_ZNK3mpz5valueEv(ptr noundef nonnull align 8 dereferenceable(16) %0) #8 comdat align 2 {
  %2 = alloca ptr, align 8
  store ptr %0, ptr %2, align 8, !tbaa !137
  %3 = load ptr, ptr %2, align 8
  %4 = getelementptr inbounds nuw %class.mpz, ptr %3, i32 0, i32 0
  %5 = load i32, ptr %4, align 8, !tbaa !175
  ret i32 %5
}

; Function Attrs: mustprogress nounwind uwtable
define linkonce_odr hidden noundef zeroext i1 @_ZN11mpz_managerILb0EE8is_smallERK3mpz(ptr noundef nonnull align 8 dereferenceable(16) %0) #5 comdat align 2 {
  %2 = alloca ptr, align 8
  store ptr %0, ptr %2, align 8, !tbaa !137
  %3 = load ptr, ptr %2, align 8, !tbaa !137
  %4 = call noundef zeroext i1 @_ZNK3mpz8is_smallEv(ptr noundef nonnull align 8 dereferenceable(16) %3)
  ret i1 %4
}

; Function Attrs: inlinehint mustprogress nounwind uwtable
define linkonce_odr hidden noundef double @_ZN11sls_tracker11get_top_sumEv(ptr noundef nonnull align 8 dereferenceable(400) %0) #8 comdat align 2 {
  %2 = alloca ptr, align 8
  store ptr %0, ptr %2, align 8, !tbaa !34
  %3 = load ptr, ptr %2, align 8
  %4 = getelementptr inbounds nuw %class.sls_tracker, ptr %3, i32 0, i32 33
  %5 = load double, ptr %4, align 8, !tbaa !80
  ret double %5
}

; Function Attrs: mustprogress uwtable
define linkonce_odr hidden void @_ZN11mpz_managerILb0EE3setER3mpzRKS1_(ptr noundef nonnull align 8 dereferenceable(600) %0, ptr noundef nonnull align 8 dereferenceable(16) %1, ptr noundef nonnull align 8 dereferenceable(16) %2) #4 comdat align 2 {
  %4 = alloca ptr, align 8
  %5 = alloca ptr, align 8
  %6 = alloca ptr, align 8
  store ptr %0, ptr %4, align 8, !tbaa !31
  store ptr %1, ptr %5, align 8, !tbaa !137
  store ptr %2, ptr %6, align 8, !tbaa !137
  %7 = load ptr, ptr %4, align 8
  %8 = load ptr, ptr %6, align 8, !tbaa !137
  %9 = call noundef zeroext i1 @_ZN11mpz_managerILb0EE8is_smallERK3mpz(ptr noundef nonnull align 8 dereferenceable(16) %8)
  br i1 %9, label %10, label %14

10:                                               ; preds = %3
  %11 = load ptr, ptr %5, align 8, !tbaa !137
  %12 = load ptr, ptr %6, align 8, !tbaa !137
  %13 = call noundef i32 @_ZNK3mpz5valueEv(ptr noundef nonnull align 8 dereferenceable(16) %12)
  call void @_ZN3mpz3setEi(ptr noundef nonnull align 8 dereferenceable(16) %11, i32 noundef %13)
  br label %17

14:                                               ; preds = %3
  %15 = load ptr, ptr %5, align 8, !tbaa !137
  %16 = load ptr, ptr %6, align 8, !tbaa !137
  call void @_ZN11mpz_managerILb0EE7big_setER3mpzRKS1_(ptr noundef nonnull align 8 dereferenceable(600) %7, ptr noundef nonnull align 8 dereferenceable(16) %15, ptr noundef nonnull align 8 dereferenceable(16) %16)
  br label %17

17:                                               ; preds = %14, %10
  ret void
}

; Function Attrs: mustprogress uwtable
define hidden noundef double @_ZN10sls_engine17incremental_scoreEP9func_declRK3mpz(ptr noundef nonnull align 8 dereferenceable(1496) %0, ptr noundef %1, ptr noundef nonnull align 8 dereferenceable(16) %2) #4 align 2 {
  %4 = alloca ptr, align 8
  %5 = alloca ptr, align 8
  %6 = alloca ptr, align 8
  store ptr %0, ptr %4, align 8, !tbaa !3
  store ptr %1, ptr %5, align 8, !tbaa !169
  store ptr %2, ptr %6, align 8, !tbaa !137
  %7 = load ptr, ptr %4, align 8
  %8 = getelementptr inbounds nuw %class.sls_engine, ptr %7, i32 0, i32 9
  %9 = load ptr, ptr %5, align 8, !tbaa !169
  %10 = load ptr, ptr %6, align 8, !tbaa !137
  call void @_ZN13sls_evaluator6updateEP9func_declRK3mpz(ptr noundef nonnull align 8 dereferenceable(264) %8, ptr noundef %9, ptr noundef nonnull align 8 dereferenceable(16) %10)
  %11 = getelementptr inbounds nuw %class.sls_engine, ptr %7, i32 0, i32 1
  %12 = getelementptr inbounds nuw %"class.bv::sls_stats", ptr %11, i32 0, i32 2
  %13 = load i32, ptr %12, align 8, !tbaa !170
  %14 = add i32 %13, 1
  store i32 %14, ptr %12, align 8, !tbaa !170
  %15 = getelementptr inbounds nuw %class.sls_engine, ptr %7, i32 0, i32 8
  %16 = call noundef double @_ZN11sls_tracker11get_top_sumEv(ptr noundef nonnull align 8 dereferenceable(400) %15)
  ret double %16
}

; Function Attrs: mustprogress uwtable
define hidden noundef double @_ZN10sls_engine23incremental_score_pruneEP9func_declRK3mpz(ptr noundef nonnull align 8 dereferenceable(1496) %0, ptr noundef %1, ptr noundef nonnull align 8 dereferenceable(16) %2) #4 align 2 {
  %4 = alloca double, align 8
  %5 = alloca ptr, align 8
  %6 = alloca ptr, align 8
  %7 = alloca ptr, align 8
  store ptr %0, ptr %5, align 8, !tbaa !3
  store ptr %1, ptr %6, align 8, !tbaa !169
  store ptr %2, ptr %7, align 8, !tbaa !137
  %8 = load ptr, ptr %5, align 8
  %9 = getelementptr inbounds nuw %class.sls_engine, ptr %8, i32 0, i32 1
  %10 = getelementptr inbounds nuw %"class.bv::sls_stats", ptr %9, i32 0, i32 2
  %11 = load i32, ptr %10, align 8, !tbaa !170
  %12 = add i32 %11, 1
  store i32 %12, ptr %10, align 8, !tbaa !170
  %13 = getelementptr inbounds nuw %class.sls_engine, ptr %8, i32 0, i32 9
  %14 = load ptr, ptr %6, align 8, !tbaa !169
  %15 = load ptr, ptr %7, align 8, !tbaa !137
  %16 = call noundef i32 @_ZN13sls_evaluator12update_pruneEP9func_declRK3mpz(ptr noundef nonnull align 8 dereferenceable(264) %13, ptr noundef %14, ptr noundef nonnull align 8 dereferenceable(16) %15)
  %17 = icmp ne i32 %16, 0
  br i1 %17, label %18, label %21

18:                                               ; preds = %3
  %19 = getelementptr inbounds nuw %class.sls_engine, ptr %8, i32 0, i32 8
  %20 = call noundef double @_ZN11sls_tracker11get_top_sumEv(ptr noundef nonnull align 8 dereferenceable(400) %19)
  store double %20, ptr %4, align 8
  br label %22

21:                                               ; preds = %3
  store double 0xFFEFFFFFFFFFFFFF, ptr %4, align 8
  br label %22

22:                                               ; preds = %21, %18
  %23 = load double, ptr %4, align 8
  ret double %23
}

; Function Attrs: mustprogress uwtable
define hidden noundef zeroext i1 @_ZN10sls_engine7what_ifEP9func_declRKjRK3mpzRdRjRS4_(ptr noundef nonnull align 8 dereferenceable(1496) %0, ptr noundef %1, ptr noundef nonnull align 4 dereferenceable(4) %2, ptr noundef nonnull align 8 dereferenceable(16) %3, ptr noundef nonnull align 8 dereferenceable(8) %4, ptr noundef nonnull align 4 dereferenceable(4) %5, ptr noundef nonnull align 8 dereferenceable(16) %6) #4 align 2 {
  %8 = alloca i1, align 1
  %9 = alloca ptr, align 8
  %10 = alloca ptr, align 8
  %11 = alloca ptr, align 8
  %12 = alloca ptr, align 8
  %13 = alloca ptr, align 8
  %14 = alloca ptr, align 8
  %15 = alloca ptr, align 8
  %16 = alloca double, align 8
  %17 = alloca i32, align 4
  store ptr %0, ptr %9, align 8, !tbaa !3
  store ptr %1, ptr %10, align 8, !tbaa !169
  store ptr %2, ptr %11, align 8, !tbaa !171
  store ptr %3, ptr %12, align 8, !tbaa !137
  store ptr %4, ptr %13, align 8, !tbaa !173
  store ptr %5, ptr %14, align 8, !tbaa !171
  store ptr %6, ptr %15, align 8, !tbaa !137
  %18 = load ptr, ptr %9, align 8
  call void @llvm.lifetime.start.p0(i64 8, ptr %16) #3
  %19 = getelementptr inbounds nuw %class.sls_engine, ptr %18, i32 0, i32 22
  %20 = load i32, ptr %19, align 4, !tbaa !124
  %21 = icmp ne i32 %20, 0
  br i1 %21, label %22, label %26

22:                                               ; preds = %7
  %23 = load ptr, ptr %10, align 8, !tbaa !169
  %24 = load ptr, ptr %12, align 8, !tbaa !137
  %25 = call noundef double @_ZN10sls_engine23incremental_score_pruneEP9func_declRK3mpz(ptr noundef nonnull align 8 dereferenceable(1496) %18, ptr noundef %23, ptr noundef nonnull align 8 dereferenceable(16) %24)
  store double %25, ptr %16, align 8, !tbaa !159
  br label %30

26:                                               ; preds = %7
  %27 = load ptr, ptr %10, align 8, !tbaa !169
  %28 = load ptr, ptr %12, align 8, !tbaa !137
  %29 = call noundef double @_ZN10sls_engine17incremental_scoreEP9func_declRK3mpz(ptr noundef nonnull align 8 dereferenceable(1496) %18, ptr noundef %27, ptr noundef nonnull align 8 dereferenceable(16) %28)
  store double %29, ptr %16, align 8, !tbaa !159
  br label %30

30:                                               ; preds = %26, %22
  %31 = load double, ptr %16, align 8, !tbaa !159
  %32 = load ptr, ptr %13, align 8, !tbaa !173
  %33 = load double, ptr %32, align 8, !tbaa !159
  %34 = fcmp ogt double %31, %33
  br i1 %34, label %35, label %44

35:                                               ; preds = %30
  %36 = load double, ptr %16, align 8, !tbaa !159
  %37 = load ptr, ptr %13, align 8, !tbaa !173
  store double %36, ptr %37, align 8, !tbaa !159
  %38 = load ptr, ptr %11, align 8, !tbaa !171
  %39 = load i32, ptr %38, align 4, !tbaa !33
  %40 = load ptr, ptr %14, align 8, !tbaa !171
  store i32 %39, ptr %40, align 4, !tbaa !33
  %41 = getelementptr inbounds nuw %class.sls_engine, ptr %18, i32 0, i32 2
  %42 = load ptr, ptr %15, align 8, !tbaa !137
  %43 = load ptr, ptr %12, align 8, !tbaa !137
  call void @_ZN11mpz_managerILb0EE3setER3mpzRKS1_(ptr noundef nonnull align 8 dereferenceable(600) %41, ptr noundef nonnull align 8 dereferenceable(16) %42, ptr noundef nonnull align 8 dereferenceable(16) %43)
  store i1 true, ptr %8, align 1
  store i32 1, ptr %17, align 4
  br label %45

44:                                               ; preds = %30
  store i1 false, ptr %8, align 1
  store i32 1, ptr %17, align 4
  br label %45

45:                                               ; preds = %44, %35
  call void @llvm.lifetime.end.p0(i64 8, ptr %16) #3
  %46 = load i1, ptr %8, align 1
  ret i1 %46
}