; Function Attrs: mustprogress uwtable
define hidden noundef zeroext i1 @_ZN10sls_engine7what_ifEP9func_declRKjRK3mpzRdRjRS4_(ptr noundef nonnull align 8 dereferenceable(1496) %0, ptr noundef %1, ptr noundef nonnull readonly align 4 captures(none) dereferenceable(4) %2, ptr noundef nonnull align 8 dereferenceable(16) %3, ptr noundef nonnull align 8 captures(none) dereferenceable(8) %4, ptr noundef nonnull writeonly align 4 captures(none) dereferenceable(4) %5, ptr noundef nonnull align 8 dereferenceable(16) %6) local_unnamed_addr #3 align 2 {
  %8 = getelementptr inbounds nuw i8, ptr %0, i64 1484
  %9 = load i32, ptr %8, align 4, !tbaa !193
  %.not = icmp eq i32 %9, 0
  br i1 %.not, label %18, label %10

10:                                               ; preds = %7
  %11 = getelementptr inbounds nuw i8, ptr %0, i64 16
  %12 = load i32, ptr %11, align 8, !tbaa !241
  %13 = add i32 %12, 1
  store i32 %13, ptr %11, align 8, !tbaa !241
  %14 = getelementptr inbounds nuw i8, ptr %0, i64 1168
  %15 = tail call noundef i32 @_ZN13sls_evaluator12update_pruneEP9func_declRK3mpz(ptr noundef nonnull align 8 dereferenceable(264) %14, ptr noundef %1, ptr noundef nonnull align 8 dereferenceable(16) %3)
  %.not.i = icmp eq i32 %15, 0
  %16 = getelementptr inbounds nuw i8, ptr %0, i64 1136
  %17 = load double, ptr %16, align 8
  %.0.i = select i1 %.not.i, double 0xFFEFFFFFFFFFFFFF, double %17
  br label %25

18:                                               ; preds = %7
  %19 = getelementptr inbounds nuw i8, ptr %0, i64 1168
  tail call void @_ZN13sls_evaluator6updateEP9func_declRK3mpz(ptr noundef nonnull align 8 dereferenceable(264) %19, ptr noundef %1, ptr noundef nonnull align 8 dereferenceable(16) %3)
  %20 = getelementptr inbounds nuw i8, ptr %0, i64 16
  %21 = load i32, ptr %20, align 8, !tbaa !241
  %22 = add i32 %21, 1
  store i32 %22, ptr %20, align 8, !tbaa !241
  %23 = getelementptr inbounds nuw i8, ptr %0, i64 1136
  %24 = load double, ptr %23, align 8, !tbaa !161
  br label %25

25:                                               ; preds = %18, %10
  %.0 = phi double [ %.0.i, %10 ], [ %24, %18 ]
  %26 = load double, ptr %4, align 8, !tbaa !229
  %27 = fcmp ogt double %.0, %26
  br i1 %27, label %28, label %_ZN11mpz_managerILb0EE3setER3mpzRKS1_.exit

28:                                               ; preds = %25
  store double %.0, ptr %4, align 8, !tbaa !229
  %29 = load i32, ptr %2, align 4, !tbaa !200
  store i32 %29, ptr %5, align 4, !tbaa !200
  %30 = getelementptr inbounds nuw i8, ptr %3, i64 4
  %31 = load i8, ptr %30, align 4
  %32 = and i8 %31, 1
  %33 = icmp eq i8 %32, 0
  br i1 %33, label %34, label %39

34:                                               ; preds = %28
  %35 = load i32, ptr %3, align 8, !tbaa !32
  store i32 %35, ptr %6, align 8, !tbaa !32
  %36 = getelementptr inbounds nuw i8, ptr %6, i64 4
  %37 = load i8, ptr %36, align 4
  %38 = and i8 %37, -2
  store i8 %38, ptr %36, align 4
  br label %_ZN11mpz_managerILb0EE3setER3mpzRKS1_.exit

39:                                               ; preds = %28
  %40 = getelementptr inbounds nuw i8, ptr %0, i64 64
  tail call void @_ZN11mpz_managerILb0EE7big_setER3mpzRKS1_(ptr noundef nonnull align 8 dereferenceable(600) %40, ptr noundef nonnull align 8 dereferenceable(16) %6, ptr noundef nonnull align 8 dereferenceable(16) %3)
  br label %_ZN11mpz_managerILb0EE3setER3mpzRKS1_.exit

_ZN11mpz_managerILb0EE3setER3mpzRKS1_.exit:       ; preds = %39, %34, %25
  ret i1 %27
}